(dp1
S'failed'
p2
(lp3
S'1'
aS'2'
aS'3'
asS'source_names'
p4
(lp5
S'.'
aS'tests'
p6
aS'/home/python/Documents/ShiokBot/tests/cores_tests.py'
p7
asS'ids'
p8
(dp9
I1
(S'/home/python/Documents/ShiokBot/bot'
S'bot'
Ntp10
sI2
(S'/home/python/Documents/ShiokBot/tests/cores_tests.py'
S'tests.cores_tests'
Ntp11
sI3
(S'/home/python/Documents/ShiokBot/tests/core_tests.py'
p12
S'tests.core_tests'
p13
Ntp14
ss.